target datalayout = "e-m:e-p270:32:32-p271:32:32-p272:64:64-i64:64-i128:128-f80:128-n8:16:32:64-S128"
target triple = "x86_64-pc-linux-gnu"

%struct.strbuf = type { i64, i64, ptr }
%struct.object_id = type { [32 x i8], i32 }
%struct.write_shallow_data = type { ptr, i32, i32, i32 }
%struct.oid_array = type { ptr, i64, i64, i32 }

; Function Attrs: inlinehint nounwind uwtable
define internal i64 @strbuf_avail(ptr noundef %0) #3 {
  %2 = alloca ptr, align 8
  store ptr %0, ptr %2, align 8, !tbaa !105
  %3 = load ptr, ptr %2, align 8, !tbaa !105
  %4 = getelementptr inbounds nuw %struct.strbuf, ptr %3, i32 0, i32 0
  %5 = load i64, ptr %4, align 8, !tbaa !192
  %6 = icmp ne i64 %5, 0
  br i1 %6, label %7, label %16

7:                                                ; preds = %1
  %8 = load ptr, ptr %2, align 8, !tbaa !105
  %9 = getelementptr inbounds nuw %struct.strbuf, ptr %8, i32 0, i32 0
  %10 = load i64, ptr %9, align 8, !tbaa !192
  %11 = load ptr, ptr %2, align 8, !tbaa !105
  %12 = getelementptr inbounds nuw %struct.strbuf, ptr %11, i32 0, i32 1
  %13 = load i64, ptr %12, align 8, !tbaa !126
  %14 = sub i64 %10, %13
  %15 = sub i64 %14, 1
  br label %17

16:                                               ; preds = %1
  br label %17

17:                                               ; preds = %16, %7
  %18 = phi i64 [ %15, %7 ], [ 0, %16 ]
  ret i64 %18
}

; Function Attrs: inlinehint nounwind uwtable
define internal void @strbuf_addch(ptr noundef %0, i32 noundef %1) #3 {
  %3 = alloca ptr, align 8
  %4 = alloca i32, align 4
  store ptr %0, ptr %3, align 8, !tbaa !105
  store i32 %1, ptr %4, align 4, !tbaa !11
  %5 = load ptr, ptr %3, align 8, !tbaa !105
  %6 = call i64 @strbuf_avail(ptr noundef %5)
  %7 = icmp ne i64 %6, 0
  br i1 %7, label %10, label %8

8:                                                ; preds = %2
  %9 = load ptr, ptr %3, align 8, !tbaa !105
  call void @strbuf_grow(ptr noundef %9, i64 noundef 1)
  br label %10

10:                                               ; preds = %8, %2
  %11 = load i32, ptr %4, align 4, !tbaa !11
  %12 = trunc i32 %11 to i8
  %13 = load ptr, ptr %3, align 8, !tbaa !105
  %14 = getelementptr inbounds nuw %struct.strbuf, ptr %13, i32 0, i32 2
  %15 = load ptr, ptr %14, align 8, !tbaa !125
  %16 = load ptr, ptr %3, align 8, !tbaa !105
  %17 = getelementptr inbounds nuw %struct.strbuf, ptr %16, i32 0, i32 1
  %18 = load i64, ptr %17, align 8, !tbaa !126
  %19 = add i64 %18, 1
  store i64 %19, ptr %17, align 8, !tbaa !126
  %20 = getelementptr inbounds nuw i8, ptr %15, i64 %18
  store i8 %12, ptr %20, align 1, !tbaa !57
  %21 = load ptr, ptr %3, align 8, !tbaa !105
  %22 = getelementptr inbounds nuw %struct.strbuf, ptr %21, i32 0, i32 2
  %23 = load ptr, ptr %22, align 8, !tbaa !125
  %24 = load ptr, ptr %3, align 8, !tbaa !105
  %25 = getelementptr inbounds nuw %struct.strbuf, ptr %24, i32 0, i32 1
  %26 = load i64, ptr %25, align 8, !tbaa !126
  %27 = getelementptr inbounds nuw i8, ptr %23, i64 %26
  store i8 0, ptr %27, align 1, !tbaa !57
  ret void
}

; Function Attrs: inlinehint nounwind uwtable
define internal void @strbuf_addstr(ptr noundef %0, ptr noundef %1) #3 {
  %3 = alloca ptr, align 8
  %4 = alloca ptr, align 8
  store ptr %0, ptr %3, align 8, !tbaa !105
  store ptr %1, ptr %4, align 8, !tbaa !9
  %5 = load ptr, ptr %3, align 8, !tbaa !105
  %6 = load ptr, ptr %4, align 8, !tbaa !9
  %7 = load ptr, ptr %4, align 8, !tbaa !9
  %8 = call i64 @strlen(ptr noundef %7) #13
  call void @strbuf_add(ptr noundef %5, ptr noundef %6, i64 noundef %8)
  ret void
}

; Function Attrs: nounwind uwtable
define internal i32 @write_shallow_commits_1(ptr noundef %0, i32 noundef %1, ptr noundef %2, i32 noundef %3) #0 {
  %5 = alloca i32, align 4
  %6 = alloca ptr, align 8
  %7 = alloca i32, align 4
  %8 = alloca ptr, align 8
  %9 = alloca i32, align 4
  %10 = alloca %struct.write_shallow_data, align 8
  %11 = alloca i32, align 4
  %12 = alloca i64, align 8
  store ptr %0, ptr %6, align 8, !tbaa !105
  store i32 %1, ptr %7, align 4, !tbaa !11
  store ptr %2, ptr %8, align 8, !tbaa !107
  store i32 %3, ptr %9, align 4, !tbaa !11
  call void @llvm.lifetime.start.p0(i64 24, ptr %10) #12
  %13 = getelementptr inbounds nuw %struct.write_shallow_data, ptr %10, i32 0, i32 0
  %14 = load ptr, ptr %6, align 8, !tbaa !105
  store ptr %14, ptr %13, align 8, !tbaa !109
  %15 = getelementptr inbounds nuw %struct.write_shallow_data, ptr %10, i32 0, i32 1
  %16 = load i32, ptr %7, align 4, !tbaa !11
  store i32 %16, ptr %15, align 8, !tbaa !111
  %17 = getelementptr inbounds nuw %struct.write_shallow_data, ptr %10, i32 0, i32 2
  store i32 0, ptr %17, align 4, !tbaa !112
  %18 = getelementptr inbounds nuw %struct.write_shallow_data, ptr %10, i32 0, i32 3
  %19 = load i32, ptr %9, align 4, !tbaa !11
  store i32 %19, ptr %18, align 8, !tbaa !113
  %20 = getelementptr i8, ptr %10, i64 20
  call void @llvm.memset.p0.i64(ptr align 4 %20, i8 0, i64 4, i1 false)
  %21 = call i32 @for_each_commit_graft(ptr noundef @write_one_shallow, ptr noundef %10)
  %22 = load ptr, ptr %8, align 8, !tbaa !107
  %23 = icmp ne ptr %22, null
  br i1 %23, label %27, label %24

24:                                               ; preds = %4
  %25 = getelementptr inbounds nuw %struct.write_shallow_data, ptr %10, i32 0, i32 2
  %26 = load i32, ptr %25, align 4, !tbaa !112
  store i32 %26, ptr %5, align 4
  store i32 1, ptr %11, align 4
  br label %53

27:                                               ; preds = %4
  call void @llvm.lifetime.start.p0(i64 8, ptr %12) #12
  store i64 0, ptr %12, align 8, !tbaa !56
  br label %28

28:                                               ; preds = %47, %27
  %29 = load i64, ptr %12, align 8, !tbaa !56
  %30 = load ptr, ptr %8, align 8, !tbaa !107
  %31 = getelementptr inbounds nuw %struct.oid_array, ptr %30, i32 0, i32 1
  %32 = load i64, ptr %31, align 8, !tbaa !114
  %33 = icmp ult i64 %29, %32
  br i1 %33, label %35, label %34

34:                                               ; preds = %28
  store i32 2, ptr %11, align 4
  call void @llvm.lifetime.end.p0(i64 8, ptr %12) #12
  br label %50

35:                                               ; preds = %28
  %36 = load ptr, ptr %6, align 8, !tbaa !105
  %37 = load ptr, ptr %8, align 8, !tbaa !107
  %38 = getelementptr inbounds nuw %struct.oid_array, ptr %37, i32 0, i32 0
  %39 = load ptr, ptr %38, align 8, !tbaa !116
  %40 = load i64, ptr %12, align 8, !tbaa !56
  %41 = getelementptr inbounds nuw %struct.object_id, ptr %39, i64 %40
  %42 = call ptr @oid_to_hex(ptr noundef %41)
  call void @strbuf_addstr(ptr noundef %36, ptr noundef %42)
  %43 = load ptr, ptr %6, align 8, !tbaa !105
  call void @strbuf_addch(ptr noundef %43, i32 noundef 10)
  %44 = getelementptr inbounds nuw %struct.write_shallow_data, ptr %10, i32 0, i32 2
  %45 = load i32, ptr %44, align 4, !tbaa !112
  %46 = add nsw i32 %45, 1
  store i32 %46, ptr %44, align 4, !tbaa !112
  br label %47

47:                                               ; preds = %35
  %48 = load i64, ptr %12, align 8, !tbaa !56
  %49 = add i64 %48, 1
  store i64 %49, ptr %12, align 8, !tbaa !56
  br label %28, !llvm.loop !117

50:                                               ; preds = %34
  %51 = getelementptr inbounds nuw %struct.write_shallow_data, ptr %10, i32 0, i32 2
  %52 = load i32, ptr %51, align 4, !tbaa !112
  store i32 %52, ptr %5, align 4
  store i32 1, ptr %11, align 4
  br label %53

53:                                               ; preds = %50, %24
  call void @llvm.lifetime.end.p0(i64 24, ptr %10) #12
  %54 = load i32, ptr %5, align 4
  ret i32 %54
}