; Function Attrs: nounwind uwtable
define internal fastcc i32 @write_shallow_commits_1(ptr noundef %0, i32 noundef %1, ptr noundef readonly %2, i32 noundef range(i32 0, 8) %3) unnamed_addr #0 {
  %5 = alloca %struct.write_shallow_data, align 8
  call void @llvm.lifetime.start.p0(i64 24, ptr nonnull %5) #15
  store ptr %0, ptr %5, align 8, !tbaa !80
  %6 = getelementptr inbounds nuw i8, ptr %5, i64 8
  store i32 %1, ptr %6, align 8, !tbaa !83
  %7 = getelementptr inbounds nuw i8, ptr %5, i64 12
  store i32 0, ptr %7, align 4, !tbaa !84
  %8 = getelementptr inbounds nuw i8, ptr %5, i64 16
  store i32 %3, ptr %8, align 8, !tbaa !85
  %9 = getelementptr inbounds nuw i8, ptr %5, i64 20
  store i32 0, ptr %9, align 4
  %10 = call i32 @for_each_commit_graft(ptr noundef nonnull @write_one_shallow, ptr noundef nonnull %5) #15
  %.not = icmp eq ptr %2, null
  br i1 %.not, label %15, label %.preheader

.preheader:                                       ; preds = %4
  %11 = getelementptr inbounds nuw i8, ptr %2, i64 8
  %12 = load i64, ptr %11, align 8, !tbaa !86
  %.not14 = icmp eq i64 %12, 0
  br i1 %.not14, label %.preheader.._crit_edge_crit_edge, label %.lr.ph

.preheader.._crit_edge_crit_edge:                 ; preds = %.preheader
  %.pre = load i32, ptr %7, align 4, !tbaa !84
  br label %._crit_edge

.lr.ph:                                           ; preds = %.preheader
  %13 = getelementptr inbounds nuw i8, ptr %0, i64 8
  %14 = getelementptr inbounds nuw i8, ptr %0, i64 16
  br label %17

15:                                               ; preds = %4
  %16 = load i32, ptr %7, align 4, !tbaa !84
  br label %._crit_edge

17:                                               ; preds = %.lr.ph, %strbuf_addch.exit
  %.013 = phi i64 [ 0, %.lr.ph ], [ %32, %strbuf_addch.exit ]
  %18 = load ptr, ptr %2, align 8, !tbaa !89
  %19 = getelementptr inbounds nuw %struct.object_id, ptr %18, i64 %.013
  %20 = call ptr @oid_to_hex(ptr noundef %19) #15
  %21 = call i64 @strlen(ptr noundef nonnull dereferenceable(1) %20) #16
  call void @strbuf_add(ptr noundef %0, ptr noundef nonnull %20, i64 noundef %21) #15
  %22 = load i64, ptr %0, align 8, !tbaa !90
  %.not.i.i = icmp eq i64 %22, 0
  br i1 %.not.i.i, label %strbuf_avail.exit.thread.i, label %strbuf_avail.exit.i

strbuf_avail.exit.i:                              ; preds = %17
  %23 = load i64, ptr %13, align 8, !tbaa !92
  %.neg.i = add i64 %23, 1
  %.not.i = icmp eq i64 %22, %.neg.i
  br i1 %.not.i, label %strbuf_avail.exit.thread.i, label %strbuf_addch.exit

strbuf_avail.exit.thread.i:                       ; preds = %strbuf_avail.exit.i, %17
  call void @strbuf_grow(ptr noundef nonnull %0, i64 noundef 1) #15
  %.pre.i = load i64, ptr %13, align 8, !tbaa !92
  %.pre7.i = add i64 %.pre.i, 1
  br label %strbuf_addch.exit

strbuf_addch.exit:                                ; preds = %strbuf_avail.exit.i, %strbuf_avail.exit.thread.i
  %.pre-phi.i = phi i64 [ %.pre7.i, %strbuf_avail.exit.thread.i ], [ %.neg.i, %strbuf_avail.exit.i ]
  %24 = phi i64 [ %.pre.i, %strbuf_avail.exit.thread.i ], [ %23, %strbuf_avail.exit.i ]
  %25 = load ptr, ptr %14, align 8, !tbaa !93
  store i64 %.pre-phi.i, ptr %13, align 8, !tbaa !92
  %26 = getelementptr inbounds nuw i8, ptr %25, i64 %24
  store i8 10, ptr %26, align 1, !tbaa !50
  %27 = load ptr, ptr %14, align 8, !tbaa !93
  %28 = load i64, ptr %13, align 8, !tbaa !92
  %29 = getelementptr inbounds nuw i8, ptr %27, i64 %28
  store i8 0, ptr %29, align 1, !tbaa !50
  %30 = load i32, ptr %7, align 4, !tbaa !84
  %31 = add nsw i32 %30, 1
  store i32 %31, ptr %7, align 4, !tbaa !84
  %32 = add nuw i64 %.013, 1
  %33 = load i64, ptr %11, align 8, !tbaa !86
  %34 = icmp ult i64 %32, %33
  br i1 %34, label %17, label %._crit_edge, !llvm.loop !94

._crit_edge:                                      ; preds = %strbuf_addch.exit, %.preheader.._crit_edge_crit_edge, %15
  %.011 = phi i32 [ %16, %15 ], [ %.pre, %.preheader.._crit_edge_crit_edge ], [ %31, %strbuf_addch.exit ]
  call void @llvm.lifetime.end.p0(i64 24, ptr nonnull %5) #15
  ret i32 %.011
}